; Function Attrs: mustprogress uwtable
define noundef nonnull align 8 dereferenceable(8) ptr @_ZN5boost4jsonlsERSoRKNS0_17serialize_optionsE(ptr noundef nonnull returned align 8 dereferenceable(8) %0, ptr nocapture noundef nonnull readonly align 1 dereferenceable(1) %1) local_unnamed_addr #5 {
  %.val = load i8, ptr %1, align 1, !tbaa !350, !range !180, !noundef !181
  %3 = load ptr, ptr %0, align 8, !tbaa !19
  %4 = getelementptr i8, ptr %3, i64 -24
  %5 = load i64, ptr %4, align 8
  %6 = getelementptr inbounds i8, ptr %0, i64 %5
  %7 = load i32, ptr @_ZN5boost4json12_GLOBAL__N_116serialize_xallocE, align 4, !tbaa !114
  %8 = getelementptr inbounds nuw i8, ptr %6, i64 192
  %9 = load i32, ptr %8, align 8, !tbaa !346
  %10 = icmp ult i32 %7, %9
  br i1 %10, label %11, label %16

11:                                               ; preds = %2
  %12 = getelementptr inbounds nuw i8, ptr %6, i64 200
  %13 = load ptr, ptr %12, align 8, !tbaa !347
  %14 = sext i32 %7 to i64
  %15 = getelementptr inbounds %"struct.std::ios_base::_Words", ptr %13, i64 %14
  br label %_ZNSt8ios_base5iwordEi.exit

16:                                               ; preds = %2
  %17 = tail call noundef nonnull align 8 dereferenceable(16) ptr @_ZNSt8ios_base13_M_grow_wordsEib(ptr noundef nonnull align 8 dereferenceable(216) %6, i32 noundef %7, i1 noundef zeroext true)
  br label %_ZNSt8ios_base5iwordEi.exit

_ZNSt8ios_base5iwordEi.exit:                      ; preds = %11, %16
  %18 = phi ptr [ %15, %11 ], [ %17, %16 ]
  %19 = zext nneg i8 %.val to i64
  %20 = getelementptr inbounds nuw i8, ptr %18, i64 8
  store i64 %19, ptr %20, align 8, !tbaa !11
  ret ptr %0
}